; Function Attrs: nounwind sspstrong uwtable
define internal noundef i32 @e1000_post_load(ptr noundef captures(none) initializes((208536, 208537), (208540, 208544)) %opaque, i32 %version_id) #0 {
entry:
  %nic = getelementptr inbounds nuw i8, ptr %opaque, i64 2608
  %0 = load ptr, ptr %nic, align 16
  %call = tail call ptr @qemu_get_queue(ptr noundef %0) #13
  %mit_ide = getelementptr inbounds nuw i8, ptr %opaque, i64 208540
  store i32 0, ptr %mit_ide, align 4
  %mit_timer_on = getelementptr inbounds nuw i8, ptr %opaque, i64 208536
  store i8 1, ptr %mit_timer_on, align 8
  %mit_timer = getelementptr inbounds nuw i8, ptr %opaque, i64 208528
  %1 = load ptr, ptr %mit_timer, align 16
  %call1 = tail call i64 @qemu_clock_get_ns(i32 noundef 1) #13
  %add = add i64 %call1, 1
  tail call void @timer_mod(ptr noundef %1, i64 noundef %add) #13
  %arrayidx = getelementptr i8, ptr %opaque, i64 11384
  %2 = load i32, ptr %arrayidx, align 8
  %and = lshr i32 %2, 1
  %and.lobit = and i32 %and, 1
  %conv = xor i32 %and.lobit, 1
  %link_down = getelementptr inbounds nuw i8, ptr %call, i64 8
  store i32 %conv, ptr %link_down, align 8
  %3 = getelementptr i8, ptr %opaque, i64 142448
  %opaque.val = load i16, ptr %3, align 16
  %4 = and i16 %opaque.val, 4096
  %tobool.i.not = icmp eq i16 %4, 0
  br i1 %tobool.i.not, label %if.end, label %land.lhs.true

land.lhs.true:                                    ; preds = %entry
  %arrayidx4 = getelementptr i8, ptr %opaque, i64 142450
  %5 = load i16, ptr %arrayidx4, align 2
  %6 = and i16 %5, 32
  %tobool.not = icmp eq i16 %6, 0
  br i1 %tobool.not, label %if.then, label %if.end

if.then:                                          ; preds = %land.lhs.true
  store i32 0, ptr %link_down, align 8
  %autoneg_timer = getelementptr inbounds nuw i8, ptr %opaque, i64 208520
  %7 = load ptr, ptr %autoneg_timer, align 8
  %call.i = tail call i64 @qemu_clock_get_ns(i32 noundef 1) #13
  %div.i = sdiv i64 %call.i, 1000000
  %add9 = add nsw i64 %div.i, 500
  tail call void @timer_mod(ptr noundef %7, i64 noundef %add9) #13
  br label %if.end

if.end:                                           ; preds = %if.then, %land.lhs.true, %entry
  %props = getelementptr inbounds nuw i8, ptr %opaque, i64 208456
  %mig_props = getelementptr inbounds nuw i8, ptr %opaque, i64 208560
  tail call void @llvm.memcpy.p0.p0.i64(ptr noundef nonnull align 8 dereferenceable(20) %props, ptr noundef nonnull align 16 dereferenceable(20) %mig_props, i64 20, i1 false)
  %received_tx_tso = getelementptr inbounds nuw i8, ptr %opaque, i64 208556
  %8 = load i8, ptr %received_tx_tso, align 4
  %tobool10 = trunc i8 %8 to i1
  br i1 %tobool10, label %if.end14, label %if.then11

if.then11:                                        ; preds = %if.end
  %tso_props = getelementptr inbounds nuw i8, ptr %opaque, i64 208476
  tail call void @llvm.memcpy.p0.p0.i64(ptr noundef nonnull align 4 dereferenceable(20) %tso_props, ptr noundef nonnull align 16 dereferenceable(20) %mig_props, i64 20, i1 false)
  br label %if.end14

if.end14:                                         ; preds = %if.then11, %if.end
  ret i32 0
}